target datalayout = "e-m:e-p270:32:32-p271:32:32-p272:64:64-i64:64-i128:128-f80:128-n8:16:32:64-S128"
target triple = "x86_64-pc-linux-gnu"

%"struct.TH::THFile__" = type { ptr, i32, i32, i32, i32, i32, i32 }
%"struct.TH::THFileVTable" = type { ptr, ptr, ptr, ptr, ptr, ptr, ptr, ptr, ptr, ptr, ptr, ptr, ptr, ptr }

; Function Attrs: mustprogress uwtable
define hidden noundef i64 @_ZN2TH18THFile_readCharRawEPNS_8THFile__EPcl(ptr noundef %0, ptr noundef %1, i64 noundef %2) #4 {
  %4 = alloca ptr, align 8
  %5 = alloca ptr, align 8
  %6 = alloca i64, align 8
  store ptr %0, ptr %4, align 8, !tbaa !3
  store ptr %1, ptr %5, align 8, !tbaa !8
  store i64 %2, ptr %6, align 8, !tbaa !10
  %7 = load ptr, ptr %4, align 8, !tbaa !3
  %8 = getelementptr inbounds nuw %"struct.TH::THFile__", ptr %7, i32 0, i32 0
  %9 = load ptr, ptr %8, align 8, !tbaa !12
  %10 = getelementptr inbounds nuw %"struct.TH::THFileVTable", ptr %9, i32 0, i32 2
  %11 = load ptr, ptr %10, align 8, !tbaa !18
  %12 = load ptr, ptr %4, align 8, !tbaa !3
  %13 = load ptr, ptr %5, align 8, !tbaa !8
  %14 = load i64, ptr %6, align 8, !tbaa !10
  %15 = call noundef i64 %11(ptr noundef %12, ptr noundef %13, i64 noundef %14)
  ret i64 %15
}

; Function Attrs: mustprogress uwtable
define hidden noundef signext i8 @_ZN2TH21THFile_readCharScalarEPNS_8THFile__E(ptr noundef %0) #4 {
  %2 = alloca ptr, align 8
  %3 = alloca i8, align 1
  store ptr %0, ptr %2, align 8, !tbaa !3
  call void @llvm.lifetime.start.p0(i64 1, ptr %3) #3
  %4 = load ptr, ptr %2, align 8, !tbaa !3
  %5 = call noundef i64 @_ZN2TH18THFile_readCharRawEPNS_8THFile__EPcl(ptr noundef %4, ptr noundef %3, i64 noundef 1)
  %6 = load i8, ptr %3, align 1, !tbaa !50
  call void @llvm.lifetime.end.p0(i64 1, ptr %3) #3
  ret i8 %6
}